target datalayout = "e-m:e-p270:32:32-p271:32:32-p272:64:64-i64:64-i128:128-f80:128-n8:16:32:64-S128"
target triple = "x86_64-pc-linux-gnu"

%class.params_ref = type { ptr }
%class.anon = type { i8 }

@.str = private unnamed_addr constant [9 x i8] c"elim_and\00", align 1
@.str.1 = private unnamed_addr constant [4 x i8] c"som\00", align 1
@.str.2 = private unnamed_addr constant [11 x i8] c"sort_store\00", align 1
@.str.3 = private unnamed_addr constant [15 x i8] c"array.simplify\00", align 1

; Function Attrs: inlinehint mustprogress nounwind uwtable
define linkonce_odr hidden noundef ptr @_ZZ19mk_solve_eqs_tacticR11ast_managerRK10params_refENKUlRT_RT0_RT1_E_cvPFP25dependent_expr_simplifierS5_S7_S9_EIS_S2_20dependent_expr_stateEEv(ptr noundef nonnull align 1 dereferenceable(1) %0) #9 comdat align 2 {
  %2 = alloca ptr, align 8
  store ptr %0, ptr %2, align 8, !tbaa !17
  ret ptr @_ZZ19mk_solve_eqs_tacticR11ast_managerRK10params_refENUlRT_RT0_RT1_E_8__invokeIS_S2_20dependent_expr_stateEEP25dependent_expr_simplifierS5_S7_S9_
}

; Function Attrs: inlinehint mustprogress uwtable
define linkonce_odr hidden noundef ptr @_Z19mk_solve_eqs_tacticR11ast_managerRK10params_ref(ptr noundef nonnull align 8 dereferenceable(976) %0, ptr noundef nonnull align 8 dereferenceable(8) %1) #8 comdat {
  %3 = alloca ptr, align 8
  %4 = alloca ptr, align 8
  %5 = alloca %class.anon, align 1
  store ptr %0, ptr %3, align 8, !tbaa !3
  store ptr %1, ptr %4, align 8, !tbaa !8
  %6 = call noalias noundef ptr @_ZN6memory8allocateEm(i64 noundef 352)
  %7 = load ptr, ptr %3, align 8, !tbaa !3
  %8 = load ptr, ptr %4, align 8, !tbaa !8
  call void @llvm.lifetime.start.p0(i64 1, ptr %5) #3
  %9 = call noundef ptr @_ZZ19mk_solve_eqs_tacticR11ast_managerRK10params_refENKUlRT_RT0_RT1_E_cvPFP25dependent_expr_simplifierS5_S7_S9_EIS_S2_20dependent_expr_stateEEv(ptr noundef nonnull align 1 dereferenceable(1) %5) #3
  call void @_ZN27dependent_expr_state_tacticC2ER11ast_managerRK10params_refPFP25dependent_expr_simplifierS1_S4_R20dependent_expr_stateE(ptr noundef nonnull align 8 dereferenceable(345) %6, ptr noundef nonnull align 8 dereferenceable(976) %7, ptr noundef nonnull align 8 dereferenceable(8) %8, ptr noundef %9)
  call void @llvm.lifetime.end.p0(i64 1, ptr %5) #3
  ret ptr %6
}

; Function Attrs: mustprogress nounwind uwtable
define linkonce_odr hidden void @_ZN10params_refC2Ev(ptr noundef nonnull align 8 dereferenceable(8) %0) unnamed_addr #6 comdat align 2 {
  %2 = alloca ptr, align 8
  store ptr %0, ptr %2, align 8, !tbaa !8
  %3 = load ptr, ptr %2, align 8
  %4 = getelementptr inbounds nuw %class.params_ref, ptr %3, i32 0, i32 0
  store ptr null, ptr %4, align 8, !tbaa !14
  ret void
}

; Function Attrs: mustprogress uwtable
define hidden noundef ptr @_Z18mk_qfauflia_tacticR11ast_managerRK10params_ref(ptr noundef nonnull align 8 dereferenceable(976) %0, ptr noundef nonnull align 8 dereferenceable(8) %1) #4 personality ptr @__gxx_personality_v0 {
  %3 = alloca ptr, align 8
  %4 = alloca ptr, align 8
  %5 = alloca %class.params_ref, align 8
  %6 = alloca ptr, align 8
  %7 = alloca i32, align 4
  %8 = alloca %class.params_ref, align 8
  %9 = alloca ptr, align 8
  %10 = alloca %class.params_ref, align 8
  %11 = alloca %class.params_ref, align 8
  %12 = alloca %class.params_ref, align 8
  %13 = alloca %class.params_ref, align 8
  %14 = alloca %class.params_ref, align 8
  %15 = alloca ptr, align 8
  %16 = alloca %class.params_ref, align 8
  store ptr %0, ptr %3, align 8, !tbaa !3
  store ptr %1, ptr %4, align 8, !tbaa !8
  call void @llvm.lifetime.start.p0(i64 8, ptr %5) #3
  call void @_ZN10params_refC2Ev(ptr noundef nonnull align 8 dereferenceable(8) %5) #3
  invoke void @_ZN10params_ref8set_boolEPKcb(ptr noundef nonnull align 8 dereferenceable(8) %5, ptr noundef @.str, i1 noundef zeroext true)
          to label %17 unwind label %55

17:                                               ; preds = %2
  invoke void @_ZN10params_ref8set_boolEPKcb(ptr noundef nonnull align 8 dereferenceable(8) %5, ptr noundef @.str.1, i1 noundef zeroext true)
          to label %18 unwind label %55

18:                                               ; preds = %17
  invoke void @_ZN10params_ref8set_boolEPKcb(ptr noundef nonnull align 8 dereferenceable(8) %5, ptr noundef @.str.2, i1 noundef zeroext true)
          to label %19 unwind label %55

19:                                               ; preds = %18
  call void @llvm.lifetime.start.p0(i64 8, ptr %8) #3
  call void @_ZN10params_refC2Ev(ptr noundef nonnull align 8 dereferenceable(8) %8) #3
  invoke void @_ZN10params_ref8set_boolEPKcb(ptr noundef nonnull align 8 dereferenceable(8) %8, ptr noundef @.str.3, i1 noundef zeroext false)
          to label %20 unwind label %59

20:                                               ; preds = %19
  call void @llvm.lifetime.start.p0(i64 8, ptr %9) #3
  %21 = load ptr, ptr %3, align 8, !tbaa !3
  call void @llvm.lifetime.start.p0(i64 8, ptr %10) #3
  call void @llvm.memset.p0.i64(ptr align 8 %10, i8 0, i64 8, i1 false)
  call void @_ZN10params_refC2Ev(ptr noundef nonnull align 8 dereferenceable(8) %10) #3
  %22 = invoke noundef ptr @_Z18mk_simplify_tacticR11ast_managerRK10params_ref(ptr noundef nonnull align 8 dereferenceable(976) %21, ptr noundef nonnull align 8 dereferenceable(8) %10)
          to label %23 unwind label %63

23:                                               ; preds = %20
  %24 = load ptr, ptr %3, align 8, !tbaa !3
  call void @llvm.lifetime.start.p0(i64 8, ptr %11) #3
  call void @llvm.memset.p0.i64(ptr align 8 %11, i8 0, i64 8, i1 false)
  call void @_ZN10params_refC2Ev(ptr noundef nonnull align 8 dereferenceable(8) %11) #3
  %25 = invoke noundef ptr @_Z26mk_propagate_values_tacticR11ast_managerRK10params_ref(ptr noundef nonnull align 8 dereferenceable(976) %24, ptr noundef nonnull align 8 dereferenceable(8) %11)
          to label %26 unwind label %67

26:                                               ; preds = %23
  %27 = load ptr, ptr %3, align 8, !tbaa !3
  call void @llvm.lifetime.start.p0(i64 8, ptr %12) #3
  call void @llvm.memset.p0.i64(ptr align 8 %12, i8 0, i64 8, i1 false)
  call void @_ZN10params_refC2Ev(ptr noundef nonnull align 8 dereferenceable(8) %12) #3
  %28 = invoke noundef ptr @_Z19mk_solve_eqs_tacticR11ast_managerRK10params_ref(ptr noundef nonnull align 8 dereferenceable(976) %27, ptr noundef nonnull align 8 dereferenceable(8) %12)
          to label %29 unwind label %71

29:                                               ; preds = %26
  %30 = load ptr, ptr %3, align 8, !tbaa !3
  call void @llvm.lifetime.start.p0(i64 8, ptr %13) #3
  call void @llvm.memset.p0.i64(ptr align 8 %13, i8 0, i64 8, i1 false)
  call void @_ZN10params_refC2Ev(ptr noundef nonnull align 8 dereferenceable(8) %13) #3
  %31 = invoke noundef ptr @_Z22mk_elim_uncnstr_tacticR11ast_managerRK10params_ref(ptr noundef nonnull align 8 dereferenceable(976) %30, ptr noundef nonnull align 8 dereferenceable(8) %13)
          to label %32 unwind label %75

32:                                               ; preds = %29
  %33 = load ptr, ptr %3, align 8, !tbaa !3
  call void @llvm.lifetime.start.p0(i64 8, ptr %14) #3
  call void @llvm.memset.p0.i64(ptr align 8 %14, i8 0, i64 8, i1 false)
  call void @_ZN10params_refC2Ev(ptr noundef nonnull align 8 dereferenceable(8) %14) #3
  %34 = invoke noundef ptr @_Z18mk_simplify_tacticR11ast_managerRK10params_ref(ptr noundef nonnull align 8 dereferenceable(976) %33, ptr noundef nonnull align 8 dereferenceable(8) %14)
          to label %35 unwind label %79

35:                                               ; preds = %32
  %36 = invoke noundef ptr @_Z8and_thenP6tacticS0_S0_S0_S0_(ptr noundef %22, ptr noundef %25, ptr noundef %28, ptr noundef %31, ptr noundef %34)
          to label %37 unwind label %79

37:                                               ; preds = %35
  call void @_ZN10params_refD1Ev(ptr noundef nonnull align 8 dereferenceable(8) %14) #3
  call void @llvm.lifetime.end.p0(i64 8, ptr %14) #3
  call void @_ZN10params_refD1Ev(ptr noundef nonnull align 8 dereferenceable(8) %13) #3
  call void @llvm.lifetime.end.p0(i64 8, ptr %13) #3
  call void @_ZN10params_refD1Ev(ptr noundef nonnull align 8 dereferenceable(8) %12) #3
  call void @llvm.lifetime.end.p0(i64 8, ptr %12) #3
  call void @_ZN10params_refD1Ev(ptr noundef nonnull align 8 dereferenceable(8) %11) #3
  call void @llvm.lifetime.end.p0(i64 8, ptr %11) #3
  call void @_ZN10params_refD1Ev(ptr noundef nonnull align 8 dereferenceable(8) %10) #3
  call void @llvm.lifetime.end.p0(i64 8, ptr %10) #3
  store ptr %36, ptr %9, align 8, !tbaa !10
  call void @llvm.lifetime.start.p0(i64 8, ptr %15) #3
  %38 = load ptr, ptr %9, align 8, !tbaa !10
  %39 = invoke noundef ptr @_Z12using_paramsP6tacticRK10params_ref(ptr noundef %38, ptr noundef nonnull align 8 dereferenceable(8) %5)
          to label %40 unwind label %87

40:                                               ; preds = %37
  %41 = load ptr, ptr %3, align 8, !tbaa !3
  call void @llvm.lifetime.start.p0(i64 8, ptr %16) #3
  call void @llvm.memset.p0.i64(ptr align 8 %16, i8 0, i64 8, i1 false)
  call void @_ZN10params_refC2Ev(ptr noundef nonnull align 8 dereferenceable(8) %16) #3
  %42 = invoke noundef ptr @_Z13mk_smt_tacticR11ast_managerRK10params_ref(ptr noundef nonnull align 8 dereferenceable(976) %41, ptr noundef nonnull align 8 dereferenceable(8) %16)
          to label %43 unwind label %91

43:                                               ; preds = %40
  %44 = invoke noundef ptr @_Z12using_paramsP6tacticRK10params_ref(ptr noundef %42, ptr noundef nonnull align 8 dereferenceable(8) %8)
          to label %45 unwind label %91

45:                                               ; preds = %43
  %46 = invoke noundef ptr @_Z8and_thenP6tacticS0_(ptr noundef %39, ptr noundef %44)
          to label %47 unwind label %91

47:                                               ; preds = %45
  call void @_ZN10params_refD1Ev(ptr noundef nonnull align 8 dereferenceable(8) %16) #3
  call void @llvm.lifetime.end.p0(i64 8, ptr %16) #3
  store ptr %46, ptr %15, align 8, !tbaa !10
  %48 = load ptr, ptr %15, align 8, !tbaa !10
  %49 = load ptr, ptr %4, align 8, !tbaa !8
  %50 = load ptr, ptr %48, align 8, !tbaa !12
  %51 = getelementptr inbounds ptr, ptr %50, i64 13
  %52 = load ptr, ptr %51, align 8
  invoke void %52(ptr noundef nonnull align 8 dereferenceable(12) %48, ptr noundef nonnull align 8 dereferenceable(8) %49)
          to label %53 unwind label %87

53:                                               ; preds = %47
  %54 = load ptr, ptr %15, align 8, !tbaa !10
  call void @llvm.lifetime.end.p0(i64 8, ptr %15) #3
  call void @llvm.lifetime.end.p0(i64 8, ptr %9) #3
  call void @_ZN10params_refD1Ev(ptr noundef nonnull align 8 dereferenceable(8) %8) #3
  call void @llvm.lifetime.end.p0(i64 8, ptr %8) #3
  call void @_ZN10params_refD1Ev(ptr noundef nonnull align 8 dereferenceable(8) %5) #3
  call void @llvm.lifetime.end.p0(i64 8, ptr %5) #3
  ret ptr %54

55:                                               ; preds = %18, %17, %2
  %56 = landingpad { ptr, i32 }
          cleanup
  %57 = extractvalue { ptr, i32 } %56, 0
  store ptr %57, ptr %6, align 8
  %58 = extractvalue { ptr, i32 } %56, 1
  store i32 %58, ptr %7, align 4
  br label %98

59:                                               ; preds = %19
  %60 = landingpad { ptr, i32 }
          cleanup
  %61 = extractvalue { ptr, i32 } %60, 0
  store ptr %61, ptr %6, align 8
  %62 = extractvalue { ptr, i32 } %60, 1
  store i32 %62, ptr %7, align 4
  br label %97

63:                                               ; preds = %20
  %64 = landingpad { ptr, i32 }
          cleanup
  %65 = extractvalue { ptr, i32 } %64, 0
  store ptr %65, ptr %6, align 8
  %66 = extractvalue { ptr, i32 } %64, 1
  store i32 %66, ptr %7, align 4
  br label %86

67:                                               ; preds = %23
  %68 = landingpad { ptr, i32 }
          cleanup
  %69 = extractvalue { ptr, i32 } %68, 0
  store ptr %69, ptr %6, align 8
  %70 = extractvalue { ptr, i32 } %68, 1
  store i32 %70, ptr %7, align 4
  br label %85

71:                                               ; preds = %26
  %72 = landingpad { ptr, i32 }
          cleanup
  %73 = extractvalue { ptr, i32 } %72, 0
  store ptr %73, ptr %6, align 8
  %74 = extractvalue { ptr, i32 } %72, 1
  store i32 %74, ptr %7, align 4
  br label %84

75:                                               ; preds = %29
  %76 = landingpad { ptr, i32 }
          cleanup
  %77 = extractvalue { ptr, i32 } %76, 0
  store ptr %77, ptr %6, align 8
  %78 = extractvalue { ptr, i32 } %76, 1
  store i32 %78, ptr %7, align 4
  br label %83

79:                                               ; preds = %35, %32
  %80 = landingpad { ptr, i32 }
          cleanup
  %81 = extractvalue { ptr, i32 } %80, 0
  store ptr %81, ptr %6, align 8
  %82 = extractvalue { ptr, i32 } %80, 1
  store i32 %82, ptr %7, align 4
  call void @_ZN10params_refD1Ev(ptr noundef nonnull align 8 dereferenceable(8) %14) #3
  call void @llvm.lifetime.end.p0(i64 8, ptr %14) #3
  br label %83

83:                                               ; preds = %79, %75
  call void @_ZN10params_refD1Ev(ptr noundef nonnull align 8 dereferenceable(8) %13) #3
  call void @llvm.lifetime.end.p0(i64 8, ptr %13) #3
  br label %84

84:                                               ; preds = %83, %71
  call void @_ZN10params_refD1Ev(ptr noundef nonnull align 8 dereferenceable(8) %12) #3
  call void @llvm.lifetime.end.p0(i64 8, ptr %12) #3
  br label %85

85:                                               ; preds = %84, %67
  call void @_ZN10params_refD1Ev(ptr noundef nonnull align 8 dereferenceable(8) %11) #3
  call void @llvm.lifetime.end.p0(i64 8, ptr %11) #3
  br label %86

86:                                               ; preds = %85, %63
  call void @_ZN10params_refD1Ev(ptr noundef nonnull align 8 dereferenceable(8) %10) #3
  call void @llvm.lifetime.end.p0(i64 8, ptr %10) #3
  br label %96

87:                                               ; preds = %47, %37
  %88 = landingpad { ptr, i32 }
          cleanup
  %89 = extractvalue { ptr, i32 } %88, 0
  store ptr %89, ptr %6, align 8
  %90 = extractvalue { ptr, i32 } %88, 1
  store i32 %90, ptr %7, align 4
  br label %95

91:                                               ; preds = %45, %43, %40
  %92 = landingpad { ptr, i32 }
          cleanup
  %93 = extractvalue { ptr, i32 } %92, 0
  store ptr %93, ptr %6, align 8
  %94 = extractvalue { ptr, i32 } %92, 1
  store i32 %94, ptr %7, align 4
  call void @_ZN10params_refD1Ev(ptr noundef nonnull align 8 dereferenceable(8) %16) #3
  call void @llvm.lifetime.end.p0(i64 8, ptr %16) #3
  br label %95

95:                                               ; preds = %91, %87
  call void @llvm.lifetime.end.p0(i64 8, ptr %15) #3
  br label %96

96:                                               ; preds = %95, %86
  call void @llvm.lifetime.end.p0(i64 8, ptr %9) #3
  br label %97

97:                                               ; preds = %96, %59
  call void @_ZN10params_refD1Ev(ptr noundef nonnull align 8 dereferenceable(8) %8) #3
  call void @llvm.lifetime.end.p0(i64 8, ptr %8) #3
  br label %98

98:                                               ; preds = %97, %55
  call void @_ZN10params_refD1Ev(ptr noundef nonnull align 8 dereferenceable(8) %5) #3
  call void @llvm.lifetime.end.p0(i64 8, ptr %5) #3
  br label %99

99:                                               ; preds = %98
  %100 = load ptr, ptr %6, align 8
  %101 = load i32, ptr %7, align 4
  %102 = insertvalue { ptr, i32 } poison, ptr %100, 0
  %103 = insertvalue { ptr, i32 } %102, i32 %101, 1
  resume { ptr, i32 } %103
}