; Function Attrs: mustprogress uwtable
define hidden noundef ptr @_Z18mk_qfauflia_tacticR11ast_managerRK10params_ref(ptr noundef nonnull align 8 dereferenceable(976) %0, ptr noundef nonnull align 8 dereferenceable(8) %1) local_unnamed_addr #3 personality ptr @__gxx_personality_v0 {
  %3 = alloca %class.params_ref, align 8
  %4 = alloca %class.params_ref, align 8
  %5 = alloca %class.params_ref, align 8
  %6 = alloca %class.params_ref, align 8
  %7 = alloca %class.params_ref, align 8
  %8 = alloca %class.params_ref, align 8
  %9 = alloca %class.params_ref, align 8
  %10 = alloca %class.params_ref, align 8
  call void @llvm.lifetime.start.p0(i64 8, ptr nonnull %3) #22
  store ptr null, ptr %3, align 8, !tbaa !3
  invoke void @_ZN10params_ref8set_boolEPKcb(ptr noundef nonnull align 8 dereferenceable(8) %3, ptr noundef nonnull @.str, i1 noundef zeroext true)
          to label %11 unwind label %38

11:                                               ; preds = %2
  invoke void @_ZN10params_ref8set_boolEPKcb(ptr noundef nonnull align 8 dereferenceable(8) %3, ptr noundef nonnull @.str.1, i1 noundef zeroext true)
          to label %12 unwind label %38

12:                                               ; preds = %11
  invoke void @_ZN10params_ref8set_boolEPKcb(ptr noundef nonnull align 8 dereferenceable(8) %3, ptr noundef nonnull @.str.2, i1 noundef zeroext true)
          to label %13 unwind label %38

13:                                               ; preds = %12
  call void @llvm.lifetime.start.p0(i64 8, ptr nonnull %4) #22
  store ptr null, ptr %4, align 8, !tbaa !3
  invoke void @_ZN10params_ref8set_boolEPKcb(ptr noundef nonnull align 8 dereferenceable(8) %4, ptr noundef nonnull @.str.3, i1 noundef zeroext false)
          to label %14 unwind label %40

14:                                               ; preds = %13
  call void @llvm.lifetime.start.p0(i64 8, ptr nonnull %5) #22
  store ptr null, ptr %5, align 8, !tbaa !3
  %15 = invoke noundef ptr @_Z18mk_simplify_tacticR11ast_managerRK10params_ref(ptr noundef nonnull align 8 dereferenceable(976) %0, ptr noundef nonnull align 8 dereferenceable(8) %5)
          to label %16 unwind label %42

16:                                               ; preds = %14
  call void @llvm.lifetime.start.p0(i64 8, ptr nonnull %6) #22
  store ptr null, ptr %6, align 8, !tbaa !3
  %17 = invoke noundef ptr @_Z26mk_propagate_values_tacticR11ast_managerRK10params_ref(ptr noundef nonnull align 8 dereferenceable(976) %0, ptr noundef nonnull align 8 dereferenceable(8) %6)
          to label %18 unwind label %44

18:                                               ; preds = %16
  call void @llvm.lifetime.start.p0(i64 8, ptr nonnull %7) #22
  store ptr null, ptr %7, align 8, !tbaa !3
  %19 = invoke noalias noundef ptr @_ZN6memory8allocateEm(i64 noundef 352)
          to label %.noexc unwind label %46

.noexc:                                           ; preds = %18
  invoke void @_ZN27dependent_expr_state_tacticC2ER11ast_managerRK10params_refPFP25dependent_expr_simplifierS1_S4_R20dependent_expr_stateE(ptr noundef nonnull align 8 dereferenceable(345) %19, ptr noundef nonnull align 8 dereferenceable(976) %0, ptr noundef nonnull align 8 dereferenceable(8) %7, ptr noundef nonnull @_ZZ19mk_solve_eqs_tacticR11ast_managerRK10params_refENUlRT_RT0_RT1_E_8__invokeIS_S2_20dependent_expr_stateEEP25dependent_expr_simplifierS5_S7_S9_)
          to label %_Z19mk_solve_eqs_tacticR11ast_managerRK10params_ref.exit unwind label %46

_Z19mk_solve_eqs_tacticR11ast_managerRK10params_ref.exit: ; preds = %.noexc
  call void @llvm.lifetime.start.p0(i64 8, ptr nonnull %8) #22
  store ptr null, ptr %8, align 8, !tbaa !3
  %20 = invoke noundef ptr @_Z22mk_elim_uncnstr_tacticR11ast_managerRK10params_ref(ptr noundef nonnull align 8 dereferenceable(976) %0, ptr noundef nonnull align 8 dereferenceable(8) %8)
          to label %21 unwind label %48

21:                                               ; preds = %_Z19mk_solve_eqs_tacticR11ast_managerRK10params_ref.exit
  call void @llvm.lifetime.start.p0(i64 8, ptr nonnull %9) #22
  store ptr null, ptr %9, align 8, !tbaa !3
  %22 = invoke noundef ptr @_Z18mk_simplify_tacticR11ast_managerRK10params_ref(ptr noundef nonnull align 8 dereferenceable(976) %0, ptr noundef nonnull align 8 dereferenceable(8) %9)
          to label %23 unwind label %50

23:                                               ; preds = %21
  %24 = invoke noundef ptr @_Z8and_thenP6tacticS0_S0_S0_S0_(ptr noundef %15, ptr noundef %17, ptr noundef nonnull %19, ptr noundef %20, ptr noundef %22)
          to label %25 unwind label %50

25:                                               ; preds = %23
  call void @_ZN10params_refD1Ev(ptr noundef nonnull align 8 dereferenceable(8) %9) #22
  call void @llvm.lifetime.end.p0(i64 8, ptr nonnull %9) #22
  call void @_ZN10params_refD1Ev(ptr noundef nonnull align 8 dereferenceable(8) %8) #22
  call void @llvm.lifetime.end.p0(i64 8, ptr nonnull %8) #22
  call void @_ZN10params_refD1Ev(ptr noundef nonnull align 8 dereferenceable(8) %7) #22
  call void @llvm.lifetime.end.p0(i64 8, ptr nonnull %7) #22
  call void @_ZN10params_refD1Ev(ptr noundef nonnull align 8 dereferenceable(8) %6) #22
  call void @llvm.lifetime.end.p0(i64 8, ptr nonnull %6) #22
  call void @_ZN10params_refD1Ev(ptr noundef nonnull align 8 dereferenceable(8) %5) #22
  call void @llvm.lifetime.end.p0(i64 8, ptr nonnull %5) #22
  %26 = invoke noundef ptr @_Z12using_paramsP6tacticRK10params_ref(ptr noundef %24, ptr noundef nonnull align 8 dereferenceable(8) %3)
          to label %27 unwind label %56

27:                                               ; preds = %25
  call void @llvm.lifetime.start.p0(i64 8, ptr nonnull %10) #22
  store ptr null, ptr %10, align 8, !tbaa !3
  %28 = invoke noundef ptr @_Z13mk_smt_tacticR11ast_managerRK10params_ref(ptr noundef nonnull align 8 dereferenceable(976) %0, ptr noundef nonnull align 8 dereferenceable(8) %10)
          to label %29 unwind label %58

29:                                               ; preds = %27
  %30 = invoke noundef ptr @_Z12using_paramsP6tacticRK10params_ref(ptr noundef %28, ptr noundef nonnull align 8 dereferenceable(8) %4)
          to label %31 unwind label %58

31:                                               ; preds = %29
  %32 = invoke noundef ptr @_Z8and_thenP6tacticS0_(ptr noundef %26, ptr noundef %30)
          to label %33 unwind label %58

33:                                               ; preds = %31
  call void @_ZN10params_refD1Ev(ptr noundef nonnull align 8 dereferenceable(8) %10) #22
  call void @llvm.lifetime.end.p0(i64 8, ptr nonnull %10) #22
  %34 = load ptr, ptr %32, align 8, !tbaa !9
  %35 = getelementptr inbounds nuw i8, ptr %34, i64 104
  %36 = load ptr, ptr %35, align 8
  invoke void %36(ptr noundef nonnull align 8 dereferenceable(12) %32, ptr noundef nonnull align 8 dereferenceable(8) %1)
          to label %37 unwind label %56

37:                                               ; preds = %33
  call void @_ZN10params_refD1Ev(ptr noundef nonnull align 8 dereferenceable(8) %4) #22
  call void @llvm.lifetime.end.p0(i64 8, ptr nonnull %4) #22
  call void @_ZN10params_refD1Ev(ptr noundef nonnull align 8 dereferenceable(8) %3) #22
  call void @llvm.lifetime.end.p0(i64 8, ptr nonnull %3) #22
  ret ptr %32

38:                                               ; preds = %12, %11, %2
  %39 = landingpad { ptr, i32 }
          cleanup
  br label %61

40:                                               ; preds = %13
  %41 = landingpad { ptr, i32 }
          cleanup
  br label %60

42:                                               ; preds = %14
  %43 = landingpad { ptr, i32 }
          cleanup
  br label %55

44:                                               ; preds = %16
  %45 = landingpad { ptr, i32 }
          cleanup
  br label %54

46:                                               ; preds = %.noexc, %18
  %47 = landingpad { ptr, i32 }
          cleanup
  br label %53

48:                                               ; preds = %_Z19mk_solve_eqs_tacticR11ast_managerRK10params_ref.exit
  %49 = landingpad { ptr, i32 }
          cleanup
  br label %52

50:                                               ; preds = %23, %21
  %51 = landingpad { ptr, i32 }
          cleanup
  call void @_ZN10params_refD1Ev(ptr noundef nonnull align 8 dereferenceable(8) %9) #22
  call void @llvm.lifetime.end.p0(i64 8, ptr nonnull %9) #22
  br label %52

52:                                               ; preds = %50, %48
  %.pn = phi { ptr, i32 } [ %51, %50 ], [ %49, %48 ]
  call void @_ZN10params_refD1Ev(ptr noundef nonnull align 8 dereferenceable(8) %8) #22
  call void @llvm.lifetime.end.p0(i64 8, ptr nonnull %8) #22
  br label %53

53:                                               ; preds = %52, %46
  %.pn.pn = phi { ptr, i32 } [ %.pn, %52 ], [ %47, %46 ]
  call void @_ZN10params_refD1Ev(ptr noundef nonnull align 8 dereferenceable(8) %7) #22
  call void @llvm.lifetime.end.p0(i64 8, ptr nonnull %7) #22
  br label %54

54:                                               ; preds = %53, %44
  %.pn.pn.pn = phi { ptr, i32 } [ %.pn.pn, %53 ], [ %45, %44 ]
  call void @_ZN10params_refD1Ev(ptr noundef nonnull align 8 dereferenceable(8) %6) #22
  call void @llvm.lifetime.end.p0(i64 8, ptr nonnull %6) #22
  br label %55

55:                                               ; preds = %54, %42
  %.pn.pn.pn.pn = phi { ptr, i32 } [ %.pn.pn.pn, %54 ], [ %43, %42 ]
  call void @_ZN10params_refD1Ev(ptr noundef nonnull align 8 dereferenceable(8) %5) #22
  call void @llvm.lifetime.end.p0(i64 8, ptr nonnull %5) #22
  br label %60

56:                                               ; preds = %33, %25
  %57 = landingpad { ptr, i32 }
          cleanup
  br label %60

58:                                               ; preds = %31, %29, %27
  %59 = landingpad { ptr, i32 }
          cleanup
  call void @_ZN10params_refD1Ev(ptr noundef nonnull align 8 dereferenceable(8) %10) #22
  call void @llvm.lifetime.end.p0(i64 8, ptr nonnull %10) #22
  br label %60

60:                                               ; preds = %55, %58, %56, %40
  %.pn23.pn.pn = phi { ptr, i32 } [ %41, %40 ], [ %.pn.pn.pn.pn, %55 ], [ %57, %56 ], [ %59, %58 ]
  call void @_ZN10params_refD1Ev(ptr noundef nonnull align 8 dereferenceable(8) %4) #22
  call void @llvm.lifetime.end.p0(i64 8, ptr nonnull %4) #22
  br label %61

61:                                               ; preds = %60, %38
  %.pn23.pn.pn.pn = phi { ptr, i32 } [ %.pn23.pn.pn, %60 ], [ %39, %38 ]
  call void @_ZN10params_refD1Ev(ptr noundef nonnull align 8 dereferenceable(8) %3) #22
  call void @llvm.lifetime.end.p0(i64 8, ptr nonnull %3) #22
  resume { ptr, i32 } %.pn23.pn.pn.pn
}